
hello:     file format elf32-tradlittlemips


Disassembly of section .init:

00400534 <_init>:
  400534:	3c1c0002 	lui	gp,0x2
  400538:	279c8adc 	addiu	gp,gp,-29988
  40053c:	0399e021 	addu	gp,gp,t9
  400540:	27bdffe0 	addiu	sp,sp,-32
  400544:	afbc0010 	sw	gp,16(sp)
  400548:	afbf001c 	sw	ra,28(sp)
  40054c:	8f828048 	lw	v0,-32696(gp)
  400550:	10400004 	beqz	v0,400564 <_init+0x30>
  400554:	00200825 	move	at,at
  400558:	8f998048 	lw	t9,-32696(gp)
  40055c:	0320f809 	jalr	t9
  400560:	00200825 	move	at,at
  400564:	04110001 	bal	40056c <_init+0x38>
  400568:	00000000 	nop
  40056c:	3c1c0042 	lui	gp,0x42
  400570:	279c9010 	addiu	gp,gp,-28656
  400574:	8f998024 	lw	t9,-32732(gp)
  400578:	2739075c 	addiu	t9,t9,1884
  40057c:	04110077 	bal	40075c <frame_dummy>
  400580:	00000000 	nop
  400584:	8fbc0010 	lw	gp,16(sp)
  400588:	04110001 	bal	400590 <_init+0x5c>
  40058c:	00000000 	nop
  400590:	3c1c0042 	lui	gp,0x42
  400594:	279c9010 	addiu	gp,gp,-28656
  400598:	8f998024 	lw	t9,-32732(gp)
  40059c:	273908c0 	addiu	t9,t9,2240
  4005a0:	041100c7 	bal	4008c0 <__do_global_ctors_aux>
  4005a4:	00000000 	nop
  4005a8:	8fbf001c 	lw	ra,28(sp)
  4005ac:	03e00008 	jr	ra
  4005b0:	27bd0020 	addiu	sp,sp,32

Disassembly of section .text:

004005c0 <__start>:
  4005c0:	03e00025 	move	zero,ra
  4005c4:	04110001 	bal	4005cc <__start+0xc>
  4005c8:	00200825 	move	at,at
  4005cc:	3c1c0042 	lui	gp,0x42
  4005d0:	279c9010 	addiu	gp,gp,-28656
  4005d4:	0000f825 	move	ra,zero
  4005d8:	8f848018 	lw	a0,-32744(gp)
  4005dc:	8fa50000 	lw	a1,0(sp)
  4005e0:	27a60004 	addiu	a2,sp,4
  4005e4:	2401fff8 	li	at,-8
  4005e8:	03a1e824 	and	sp,sp,at
  4005ec:	27bdffe0 	addiu	sp,sp,-32
  4005f0:	8f87801c 	lw	a3,-32740(gp)
  4005f4:	8f888020 	lw	t0,-32736(gp)
  4005f8:	afa80010 	sw	t0,16(sp)
  4005fc:	afa20014 	sw	v0,20(sp)
  400600:	afbd0018 	sw	sp,24(sp)
  400604:	8f998044 	lw	t9,-32700(gp)
  400608:	0320f809 	jalr	t9
  40060c:	00200825 	move	at,at

00400610 <hlt>:
  400610:	1000ffff 	b	400610 <hlt>
  400614:	00200825 	move	at,at
  400618:	00200825 	move	at,at
  40061c:	00200825 	move	at,at

00400620 <deregister_tm_clones>:
  400620:	3c040041 	lui	a0,0x41
  400624:	3c020041 	lui	v0,0x41
  400628:	24841014 	addiu	a0,a0,4116
  40062c:	24421017 	addiu	v0,v0,4119
  400630:	00441023 	subu	v0,v0,a0
  400634:	2c420007 	sltiu	v0,v0,7
  400638:	14400007 	bnez	v0,400658 <deregister_tm_clones+0x38>
  40063c:	3c1c0042 	lui	gp,0x42
  400640:	279c9010 	addiu	gp,gp,-28656
  400644:	8f998050 	lw	t9,-32688(gp)
  400648:	13200003 	beqz	t9,400658 <deregister_tm_clones+0x38>
  40064c:	00000000 	nop
  400650:	03200008 	jr	t9
  400654:	00000000 	nop
  400658:	03e00008 	jr	ra
  40065c:	00000000 	nop

00400660 <register_tm_clones>:
  400660:	3c040041 	lui	a0,0x41
  400664:	3c020041 	lui	v0,0x41
  400668:	24841014 	addiu	a0,a0,4116
  40066c:	24421014 	addiu	v0,v0,4116
  400670:	00441023 	subu	v0,v0,a0
  400674:	00021083 	sra	v0,v0,0x2
  400678:	00022fc2 	srl	a1,v0,0x1f
  40067c:	00a22821 	addu	a1,a1,v0
  400680:	00052843 	sra	a1,a1,0x1
  400684:	10a00007 	beqz	a1,4006a4 <register_tm_clones+0x44>
  400688:	3c1c0042 	lui	gp,0x42
  40068c:	279c9010 	addiu	gp,gp,-28656
  400690:	8f99803c 	lw	t9,-32708(gp)
  400694:	13200003 	beqz	t9,4006a4 <register_tm_clones+0x44>
  400698:	00000000 	nop
  40069c:	03200008 	jr	t9
  4006a0:	00000000 	nop
  4006a4:	03e00008 	jr	ra
  4006a8:	00000000 	nop

004006ac <__do_global_dtors_aux>:
  4006ac:	27bdffd0 	addiu	sp,sp,-48
  4006b0:	afb30028 	sw	s3,40(sp)
  4006b4:	3c130041 	lui	s3,0x41
  4006b8:	afbf002c 	sw	ra,44(sp)
  4006bc:	afb20024 	sw	s2,36(sp)
  4006c0:	afb10020 	sw	s1,32(sp)
  4006c4:	afb0001c 	sw	s0,28(sp)
  4006c8:	92621070 	lbu	v0,4208(s3)
  4006cc:	1440001c 	bnez	v0,400740 <__do_global_dtors_aux+0x94>
  4006d0:	3c110041 	lui	s1,0x41
  4006d4:	3c020041 	lui	v0,0x41
  4006d8:	26310ff4 	addiu	s1,s1,4084
  4006dc:	24420ff8 	addiu	v0,v0,4088
  4006e0:	3c100041 	lui	s0,0x41
  4006e4:	00518823 	subu	s1,v0,s1
  4006e8:	3c020041 	lui	v0,0x41
  4006ec:	00118883 	sra	s1,s1,0x2
  4006f0:	24520ff4 	addiu	s2,v0,4084
  4006f4:	8e021074 	lw	v0,4212(s0)
  4006f8:	2631ffff 	addiu	s1,s1,-1
  4006fc:	0051182b 	sltu	v1,v0,s1
  400700:	1060000b 	beqz	v1,400730 <__do_global_dtors_aux+0x84>
  400704:	24420001 	addiu	v0,v0,1
  400708:	00021880 	sll	v1,v0,0x2
  40070c:	ae021074 	sw	v0,4212(s0)
  400710:	02431021 	addu	v0,s2,v1
  400714:	8c590000 	lw	t9,0(v0)
  400718:	0320f809 	jalr	t9
  40071c:	00000000 	nop
  400720:	8e021074 	lw	v0,4212(s0)
  400724:	0051182b 	sltu	v1,v0,s1
  400728:	1460fff7 	bnez	v1,400708 <__do_global_dtors_aux+0x5c>
  40072c:	24420001 	addiu	v0,v0,1
  400730:	0c100188 	jal	400620 <deregister_tm_clones>
  400734:	00000000 	nop
  400738:	24020001 	li	v0,1
  40073c:	a2621070 	sb	v0,4208(s3)
  400740:	8fbf002c 	lw	ra,44(sp)
  400744:	8fb30028 	lw	s3,40(sp)
  400748:	8fb20024 	lw	s2,36(sp)
  40074c:	8fb10020 	lw	s1,32(sp)
  400750:	8fb0001c 	lw	s0,28(sp)
  400754:	03e00008 	jr	ra
  400758:	27bd0030 	addiu	sp,sp,48

0040075c <frame_dummy>:
  40075c:	3c020041 	lui	v0,0x41
  400760:	24440ffc 	addiu	a0,v0,4092
  400764:	8c820000 	lw	v0,0(a0)
  400768:	14400003 	bnez	v0,400778 <frame_dummy+0x1c>
  40076c:	3c1c0042 	lui	gp,0x42
  400770:	08100198 	j	400660 <register_tm_clones>
  400774:	00000000 	nop
  400778:	27bdffe0 	addiu	sp,sp,-32
  40077c:	279c9010 	addiu	gp,gp,-28656
  400780:	afbf001c 	sw	ra,28(sp)
  400784:	afbc0010 	sw	gp,16(sp)
  400788:	8f998040 	lw	t9,-32704(gp)
  40078c:	13200005 	beqz	t9,4007a4 <frame_dummy+0x48>
  400790:	8fbf001c 	lw	ra,28(sp)
  400794:	0320f809 	jalr	t9
  400798:	00000000 	nop
  40079c:	8fbc0010 	lw	gp,16(sp)
  4007a0:	8fbf001c 	lw	ra,28(sp)
  4007a4:	08100198 	j	400660 <register_tm_clones>
  4007a8:	27bd0020 	addiu	sp,sp,32
  4007ac:	00000000 	nop

004007b0 <main>:
  4007b0:	27bdffe0 	addiu	sp,sp,-32
  4007b4:	afbf001c 	sw	ra,28(sp)
  4007b8:	afbe0018 	sw	s8,24(sp)
  4007bc:	03a0f025 	move	s8,sp
  4007c0:	3c1c0042 	lui	gp,0x42
  4007c4:	279c9010 	addiu	gp,gp,-28656
  4007c8:	afbc0010 	sw	gp,16(sp)
  4007cc:	3c020040 	lui	v0,0x40
  4007d0:	244409b0 	addiu	a0,v0,2480
  4007d4:	8f82804c 	lw	v0,-32692(gp)
  4007d8:	0040c825 	move	t9,v0
  4007dc:	0320f809 	jalr	t9
  4007e0:	00000000 	nop
  4007e4:	8fdc0010 	lw	gp,16(s8)
  4007e8:	00001025 	move	v0,zero
  4007ec:	03c0e825 	move	sp,s8
  4007f0:	8fbf001c 	lw	ra,28(sp)
  4007f4:	8fbe0018 	lw	s8,24(sp)
  4007f8:	27bd0020 	addiu	sp,sp,32
  4007fc:	03e00008 	jr	ra
  400800:	00000000 	nop
	...

00400810 <__libc_csu_init>:
  400810:	3c1c0002 	lui	gp,0x2
  400814:	279c8800 	addiu	gp,gp,-30720
  400818:	0399e021 	addu	gp,gp,t9
  40081c:	27bdffc8 	addiu	sp,sp,-56
  400820:	8f998028 	lw	t9,-32728(gp)
  400824:	afbc0010 	sw	gp,16(sp)
  400828:	afb50030 	sw	s5,48(sp)
  40082c:	00c0a825 	move	s5,a2
  400830:	afb4002c 	sw	s4,44(sp)
  400834:	00a0a025 	move	s4,a1
  400838:	afb30028 	sw	s3,40(sp)
  40083c:	00809825 	move	s3,a0
  400840:	afb20024 	sw	s2,36(sp)
  400844:	afb0001c 	sw	s0,28(sp)
  400848:	afbf0034 	sw	ra,52(sp)
  40084c:	0411ff39 	bal	400534 <_init>
  400850:	afb10020 	sw	s1,32(sp)
  400854:	8fbc0010 	lw	gp,16(sp)
  400858:	8f90802c 	lw	s0,-32724(gp)
  40085c:	8f92802c 	lw	s2,-32724(gp)
  400860:	02509023 	subu	s2,s2,s0
  400864:	00129083 	sra	s2,s2,0x2
  400868:	12400009 	beqz	s2,400890 <__libc_csu_init+0x80>
  40086c:	00008825 	move	s1,zero
  400870:	8e190000 	lw	t9,0(s0)
  400874:	26310001 	addiu	s1,s1,1
  400878:	02a03025 	move	a2,s5
  40087c:	02802825 	move	a1,s4
  400880:	0320f809 	jalr	t9
  400884:	02602025 	move	a0,s3
  400888:	1632fff9 	bne	s1,s2,400870 <__libc_csu_init+0x60>
  40088c:	26100004 	addiu	s0,s0,4
  400890:	8fbf0034 	lw	ra,52(sp)
  400894:	8fb50030 	lw	s5,48(sp)
  400898:	8fb4002c 	lw	s4,44(sp)
  40089c:	8fb30028 	lw	s3,40(sp)
  4008a0:	8fb20024 	lw	s2,36(sp)
  4008a4:	8fb10020 	lw	s1,32(sp)
  4008a8:	8fb0001c 	lw	s0,28(sp)
  4008ac:	03e00008 	jr	ra
  4008b0:	27bd0038 	addiu	sp,sp,56

004008b4 <__libc_csu_fini>:
  4008b4:	03e00008 	jr	ra
  4008b8:	00200825 	move	at,at
  4008bc:	00200825 	move	at,at

004008c0 <__do_global_ctors_aux>:
  4008c0:	3c030041 	lui	v1,0x41
  4008c4:	2402ffff 	li	v0,-1
  4008c8:	8c790fec 	lw	t9,4076(v1)
  4008cc:	1322000f 	beq	t9,v0,40090c <__do_global_ctors_aux+0x4c>
  4008d0:	00000000 	nop
  4008d4:	27bdffd8 	addiu	sp,sp,-40
  4008d8:	afb10020 	sw	s1,32(sp)
  4008dc:	2411ffff 	li	s1,-1
  4008e0:	afb0001c 	sw	s0,28(sp)
  4008e4:	24700fec 	addiu	s0,v1,4076
  4008e8:	afbf0024 	sw	ra,36(sp)
  4008ec:	0320f809 	jalr	t9
  4008f0:	2610fffc 	addiu	s0,s0,-4
  4008f4:	8e190000 	lw	t9,0(s0)
  4008f8:	1731fffc 	bne	t9,s1,4008ec <__do_global_ctors_aux+0x2c>
  4008fc:	8fbf0024 	lw	ra,36(sp)
  400900:	8fb10020 	lw	s1,32(sp)
  400904:	8fb0001c 	lw	s0,28(sp)
  400908:	27bd0028 	addiu	sp,sp,40
  40090c:	03e00008 	jr	ra
  400910:	00000000 	nop
	...

Disassembly of section .fini:

00400950 <_fini>:
  400950:	3c1c0002 	lui	gp,0x2
  400954:	279c86c0 	addiu	gp,gp,-31040
  400958:	0399e021 	addu	gp,gp,t9
  40095c:	27bdffe0 	addiu	sp,sp,-32
  400960:	afbc0010 	sw	gp,16(sp)
  400964:	afbf001c 	sw	ra,28(sp)
  400968:	04110001 	bal	400970 <_fini+0x20>
  40096c:	00000000 	nop
  400970:	3c1c0042 	lui	gp,0x42
  400974:	279c9010 	addiu	gp,gp,-28656
  400978:	8f998024 	lw	t9,-32732(gp)
  40097c:	273906ac 	addiu	t9,t9,1708
  400980:	0411ff4a 	bal	4006ac <__do_global_dtors_aux>
  400984:	00000000 	nop
  400988:	8fbf001c 	lw	ra,28(sp)
  40098c:	03e00008 	jr	ra
  400990:	27bd0020 	addiu	sp,sp,32

Disassembly of section .rld_map:

00411010 <__RLD_MAP>:
  411010:	00000000 	nop
